target datalayout = "e-m:e-p270:32:32-p271:32:32-p272:64:64-i64:64-i128:128-f80:128-n8:16:32:64-S128"
target triple = "x86_64-pc-linux-gnu"

; Function Attrs: mustprogress uwtable
define noundef ptr @_ZN6LibRaw18malloc_omp_buffersEim(ptr noundef nonnull align 8 dereferenceable(767680) %0, i32 noundef %1, i64 noundef %2) #3 align 2 {
  %4 = alloca ptr, align 8
  %5 = alloca i32, align 4
  %6 = alloca i64, align 8
  %7 = alloca ptr, align 8
  %8 = alloca i32, align 4
  store ptr %0, ptr %4, align 8, !tbaa !18
  store i32 %1, ptr %5, align 4, !tbaa !12
  store i64 %2, ptr %6, align 8, !tbaa !41
  %9 = load ptr, ptr %4, align 8
  call void @llvm.lifetime.start.p0(i64 8, ptr %7) #18
  %10 = load i32, ptr %5, align 4, !tbaa !12
  %11 = sext i32 %10 to i64
  %12 = call noundef ptr @_ZN6LibRaw6callocEmm(ptr noundef nonnull align 8 dereferenceable(767680) %9, i64 noundef 8, i64 noundef %11)
  store ptr %12, ptr %7, align 8, !tbaa !20
  call void @llvm.lifetime.start.p0(i64 4, ptr %8) #18
  store i32 0, ptr %8, align 4, !tbaa !12
  br label %13

13:                                               ; preds = %25, %3
  %14 = load i32, ptr %8, align 4, !tbaa !12
  %15 = load i32, ptr %5, align 4, !tbaa !12
  %16 = icmp slt i32 %14, %15
  br i1 %16, label %18, label %17

17:                                               ; preds = %13
  call void @llvm.lifetime.end.p0(i64 4, ptr %8) #18
  br label %28

18:                                               ; preds = %13
  %19 = load i64, ptr %6, align 8, !tbaa !41
  %20 = call noundef ptr @_ZN6LibRaw6callocEmm(ptr noundef nonnull align 8 dereferenceable(767680) %9, i64 noundef %19, i64 noundef 1)
  %21 = load ptr, ptr %7, align 8, !tbaa !20
  %22 = load i32, ptr %8, align 4, !tbaa !12
  %23 = sext i32 %22 to i64
  %24 = getelementptr inbounds ptr, ptr %21, i64 %23
  store ptr %20, ptr %24, align 8, !tbaa !10
  br label %25

25:                                               ; preds = %18
  %26 = load i32, ptr %8, align 4, !tbaa !12
  %27 = add nsw i32 %26, 1
  store i32 %27, ptr %8, align 4, !tbaa !12
  br label %13, !llvm.loop !174

28:                                               ; preds = %17
  %29 = load ptr, ptr %7, align 8, !tbaa !20
  call void @llvm.lifetime.end.p0(i64 8, ptr %7) #18
  ret ptr %29
}