; Function Attrs: mustprogress uwtable
define noundef nonnull ptr @_ZN6LibRaw18malloc_omp_buffersEim(ptr noundef nonnull readonly align 8 captures(none) dereferenceable(767680) %0, i32 noundef %1, i64 noundef %2) local_unnamed_addr #4 align 2 {
  %4 = sext i32 %1 to i64
  %5 = tail call noundef ptr @_ZN6LibRaw6callocEmm(ptr noundef nonnull align 8 dereferenceable(767680) %0, i64 noundef 8, i64 noundef %4)
  %6 = icmp sgt i32 %1, 0
  br i1 %6, label %.lr.ph, label %._crit_edge

.lr.ph:                                           ; preds = %3
  %7 = getelementptr inbounds nuw i8, ptr %0, i64 767424
  %8 = load i32, ptr %7, align 8, !tbaa !13
  %9 = zext i32 %8 to i64
  %10 = add i64 %2, %9
  %11 = getelementptr inbounds nuw i8, ptr %0, i64 767416
  %wide.trip.count = zext nneg i32 %1 to i64
  br label %12

._crit_edge:                                      ; preds = %_ZN6LibRaw6callocEmm.exit, %3
  ret ptr %5

12:                                               ; preds = %.lr.ph, %_ZN6LibRaw6callocEmm.exit
  %indvars.iv = phi i64 [ 0, %.lr.ph ], [ %indvars.iv.next, %_ZN6LibRaw6callocEmm.exit ]
  %13 = tail call noalias ptr @calloc(i64 noundef %10, i64 noundef 1) #33
  %.not.i.i.i = icmp eq ptr %13, null
  br i1 %.not.i.i.i, label %_ZN13libraw_memmgr6callocEmm.exit.thread.i, label %.preheader.i.i.i

.preheader.i.i.i:                                 ; preds = %12
  %14 = load ptr, ptr %11, align 8, !tbaa !16
  br label %16

15:                                               ; preds = %16
  %indvars.iv.next.i.i.i = add nuw nsw i64 %indvars.iv.i.i.i, 1
  %exitcond.not.i.i.i = icmp eq i64 %indvars.iv.next.i.i.i, 511
  br i1 %exitcond.not.i.i.i, label %19, label %16, !llvm.loop !17

16:                                               ; preds = %15, %.preheader.i.i.i
  %indvars.iv.i.i.i = phi i64 [ 0, %.preheader.i.i.i ], [ %indvars.iv.next.i.i.i, %15 ]
  %17 = getelementptr inbounds nuw ptr, ptr %14, i64 %indvars.iv.i.i.i
  %18 = load ptr, ptr %17, align 8, !tbaa !19
  %.not10.i.i.i = icmp eq ptr %18, null
  br i1 %.not10.i.i.i, label %_ZN6LibRaw6callocEmm.exit, label %15

19:                                               ; preds = %15
  %20 = getelementptr inbounds nuw i8, ptr %14, i64 4088
  %21 = load ptr, ptr %20, align 8, !tbaa !19
  %.not11.i.i.i = icmp eq ptr %21, null
  br i1 %.not11.i.i.i, label %22, label %23

22:                                               ; preds = %19
  store ptr %13, ptr %20, align 8, !tbaa !19
  br label %23

23:                                               ; preds = %22, %19
  %24 = tail call ptr @__cxa_allocate_exception(i64 4) #30
  store i32 11, ptr %24, align 16, !tbaa !20
  tail call void @__cxa_throw(ptr nonnull %24, ptr nonnull @_ZTI17LibRaw_exceptions, ptr null) #31
  unreachable

_ZN13libraw_memmgr6callocEmm.exit.thread.i:       ; preds = %12
  %25 = tail call ptr @__cxa_allocate_exception(i64 4) #30
  store i32 1, ptr %25, align 16, !tbaa !20
  tail call void @__cxa_throw(ptr nonnull %25, ptr nonnull @_ZTI17LibRaw_exceptions, ptr null) #31
  unreachable

_ZN6LibRaw6callocEmm.exit:                        ; preds = %16
  %26 = getelementptr inbounds nuw ptr, ptr %14, i64 %indvars.iv.i.i.i
  store ptr %13, ptr %26, align 8, !tbaa !19
  %27 = getelementptr inbounds nuw ptr, ptr %5, i64 %indvars.iv
  store ptr %13, ptr %27, align 8, !tbaa !11
  %indvars.iv.next = add nuw nsw i64 %indvars.iv, 1
  %exitcond.not = icmp eq i64 %indvars.iv.next, %wide.trip.count
  br i1 %exitcond.not, label %._crit_edge, label %12, !llvm.loop !158
}